; ModuleID = 'source-C-CXX/21/1094.c'
source_filename = "source-C-CXX/21/1094.c"
target datalayout = "e-m:e-p270:32:32-p271:32:32-p272:64:64-i64:64-f80:128-n8:16:32:64-S128"
target triple = "x86_64-pc-linux-gnu"

%struct._IO_FILE = type { i32, i8*, i8*, i8*, i8*, i8*, i8*, i8*, i8*, i8*, i8*, i8*, %struct._IO_marker*, %struct._IO_FILE*, i32, i32, i64, i16, i8, [1 x i8], i8*, i64, %struct._IO_codecvt*, %struct._IO_wide_data*, %struct._IO_FILE*, i8*, i64, i32, [20 x i8] }
%struct._IO_marker = type opaque
%struct._IO_codecvt = type opaque
%struct._IO_wide_data = type opaque

@.str = private unnamed_addr constant [3 x i8] c"%d\00", align 1
@.str.1 = private unnamed_addr constant [3 x i8] c"No\00", align 1
@stdin = external local_unnamed_addr global %struct._IO_FILE*, align 8

; Function Attrs: nofree nounwind sspstrong uwtable
define dso_local i32 @main() local_unnamed_addr #0 {
  %1 = alloca i32, align 4
  %2 = bitcast i32* %1 to i8*
  call void @llvm.lifetime.start.p0i8(i64 4, i8* nonnull %2) #3
  %3 = call i32 (i8*, ...) @__isoc99_scanf(i8* getelementptr inbounds ([3 x i8], [3 x i8]* @.str, i64 0, i64 0), i32* nonnull %1)
  %4 = load i32, i32* %1, align 4, !tbaa !5
  %5 = load %struct._IO_FILE*, %struct._IO_FILE** @stdin, align 8, !tbaa !9
  %6 = call i32 @getc(%struct._IO_FILE* %5) #3
  %7 = and i32 %6, 255
  %8 = icmp eq i32 %7, 10
  br i1 %8, label %33, label %9

9:                                                ; preds = %0, %24
  %10 = phi i32 [ %26, %24 ], [ %4, %0 ]
  %11 = phi i32 [ %25, %24 ], [ %4, %0 ]
  %12 = call i32 (i8*, ...) @__isoc99_scanf(i8* getelementptr inbounds ([3 x i8], [3 x i8]* @.str, i64 0, i64 0), i32* nonnull %1)
  %13 = load i32, i32* %1, align 4, !tbaa !5
  %14 = icmp sgt i32 %13, %11
  br i1 %14, label %24, label %15

15:                                               ; preds = %9
  %16 = icmp slt i32 %13, %11
  %17 = icmp sgt i32 %13, %10
  %18 = select i1 %16, i1 %17, i1 false
  br i1 %18, label %24, label %19

19:                                               ; preds = %15
  %20 = icmp slt i32 %13, %10
  %21 = icmp eq i32 %11, %10
  %22 = select i1 %20, i1 %21, i1 false
  %23 = select i1 %22, i32 %13, i32 %10
  br label %24

24:                                               ; preds = %19, %15, %9
  %25 = phi i32 [ %13, %9 ], [ %11, %15 ], [ %11, %19 ]
  %26 = phi i32 [ %11, %9 ], [ %13, %15 ], [ %23, %19 ]
  %27 = load %struct._IO_FILE*, %struct._IO_FILE** @stdin, align 8, !tbaa !9
  %28 = call i32 @getc(%struct._IO_FILE* %27) #3
  %29 = and i32 %28, 255
  %30 = icmp eq i32 %29, 10
  br i1 %30, label %31, label %9, !llvm.loop !11

31:                                               ; preds = %24
  %32 = icmp eq i32 %25, %26
  br i1 %32, label %33, label %35

33:                                               ; preds = %0, %31
  %34 = call i32 (i8*, ...) @printf(i8* nonnull dereferenceable(1) getelementptr inbounds ([3 x i8], [3 x i8]* @.str.1, i64 0, i64 0))
  br label %37

35:                                               ; preds = %31
  %36 = call i32 (i8*, ...) @printf(i8* nonnull dereferenceable(1) getelementptr inbounds ([3 x i8], [3 x i8]* @.str, i64 0, i64 0), i32 %26)
  br label %37

37:                                               ; preds = %35, %33
  call void @llvm.lifetime.end.p0i8(i64 4, i8* nonnull %2) #3
  ret i32 0
}

; Function Attrs: argmemonly mustprogress nofree nosync nounwind willreturn
declare void @llvm.lifetime.start.p0i8(i64 immarg, i8* nocapture) #1

; Function Attrs: nofree nounwind
declare noundef i32 @__isoc99_scanf(i8* nocapture noundef readonly, ...) local_unnamed_addr #2

; Function Attrs: nofree nounwind
declare noundef i32 @printf(i8* nocapture noundef readonly, ...) local_unnamed_addr #2

; Function Attrs: argmemonly mustprogress nofree nosync nounwind willreturn
declare void @llvm.lifetime.end.p0i8(i64 immarg, i8* nocapture) #1

; Function Attrs: nofree nounwind
declare noundef i32 @getc(%struct._IO_FILE* nocapture noundef) local_unnamed_addr #2


!llvm.module.flags = !{!0, !1, !2, !3}
!llvm.ident = !{!4}

!0 = !{i32 1, !"wchar_size", i32 4}
!1 = !{i32 7, !"PIC Level", i32 2}
!2 = !{i32 7, !"PIE Level", i32 2}
!3 = !{i32 7, !"uwtable", i32 1}
!4 = !{!"clang version 13.0.0"}
!5 = !{!6, !6, i64 0}
!6 = !{!"int", !7, i64 0}
!7 = !{!"omnipotent char", !8, i64 0}
!8 = !{!"Simple C/C++ TBAA"}
!9 = !{!10, !10, i64 0}
!10 = !{!"any pointer", !7, i64 0}
!11 = distinct !{!11, !12}
!12 = !{!"llvm.loop.mustprogress"}
